target datalayout = "e-m:e-p270:32:32-p271:32:32-p272:64:64-i64:64-i128:128-f80:128-n8:16:32:64-S128"
target triple = "x86_64-unknown-linux-gnu"

%"class.EA::Thread::AtomicInt" = type { %"struct.std::atomic" }
%"struct.std::atomic" = type { %"struct.std::__atomic_base" }
%"struct.std::__atomic_base" = type { i32 }
%"class.EA::StdC::CallbackManager::CallbackVector" = type { ptr, ptr, ptr, [8 x ptr] }
%"class.EA::StdC::CallbackManager" = type { %"class.EA::StdC::ICallbackManager", %"class.EA::StdC::CallbackManager::CallbackVector", %"class.EA::StdC::Stopwatch", %"class.EA::Thread::AtomicInt.0", %"class.EA::Thread::AtomicInt.0", i8, i8, i8, %"class.EA::StdC::RandomLinearCongruential", double, i64, i64, i64, i64, %"class.EA::Thread::Mutex", %"class.EA::Thread::Thread", %"class.EA::Thread::AtomicInt", [4 x i8], %"struct.EA::Thread::ThreadParameters" }
%"class.EA::StdC::ICallbackManager" = type { ptr }
%"class.EA::StdC::Stopwatch" = type { i64, i64, i32, float }
%"class.EA::Thread::AtomicInt.0" = type { %"struct.std::atomic.1" }
%"struct.std::atomic.1" = type { %"struct.std::__atomic_base.2" }
%"struct.std::__atomic_base.2" = type { i64 }
%"class.EA::StdC::RandomLinearCongruential" = type { i32 }
%"class.EA::Thread::Mutex" = type { %struct.EAMutexData }
%struct.EAMutexData = type <{ %union.pthread_mutex_t, i32, [4 x i8] }>
%union.pthread_mutex_t = type { %struct.__pthread_mutex_s }
%struct.__pthread_mutex_s = type { i32, i32, i32, i32, i32, i16, i16, %struct.__pthread_internal_list }
%struct.__pthread_internal_list = type { ptr, ptr }
%"class.EA::Thread::Thread" = type { %struct.EAThreadData }
%struct.EAThreadData = type { ptr }
%"struct.EA::Thread::ThreadParameters" = type <{ ptr, i64, i32, i32, ptr, i64, i8, [7 x i8] }>

@_ZN2EA4StdC15CallbackManager14CallbackVectorD1Ev = dso_local unnamed_addr alias void (ptr), ptr @_ZN2EA4StdC15CallbackManager14CallbackVectorD2Ev

; Function Attrs: mustprogress nounwind uwtable
define linkonce_odr dso_local void @_ZN2EA4StdC16ICallbackManagerD2Ev(ptr noundef nonnull align 8 dereferenceable(8) %this) unnamed_addr #1 comdat align 2 {
entry:
  %this.addr = alloca ptr, align 8
  store ptr %this, ptr %this.addr, align 8
  ret void
}

; Function Attrs: mustprogress nounwind uwtable
define linkonce_odr dso_local void @_ZN2EA4StdC9StopwatchD2Ev(ptr noundef nonnull align 8 dereferenceable(24) %this) unnamed_addr #1 comdat align 2 {
entry:
  %this.addr = alloca ptr, align 8
  store ptr %this, ptr %this.addr, align 8
  ret void
}

; Function Attrs: mustprogress nounwind uwtable
define dso_local void @_ZN2EA4StdC15CallbackManagerD2Ev(ptr noundef nonnull align 8 dereferenceable(296) %this) unnamed_addr #1 align 2 personality ptr @__gxx_personality_v0 {
entry:
  %this.addr = alloca ptr, align 8
  store ptr %this, ptr %this.addr, align 8
  %this1 = load ptr, ptr %this.addr, align 8
  store ptr getelementptr inbounds ({ [9 x ptr] }, ptr @_ZTVN2EA4StdC15CallbackManagerE, i32 0, i32 0, i32 2), ptr %this1, align 8
  invoke void @_ZN2EA4StdC15CallbackManager8ShutdownEv(ptr noundef nonnull align 8 dereferenceable(296) %this1)
          to label %invoke.cont unwind label %terminate.lpad

invoke.cont:                                      ; preds = %entry
  %mThread = getelementptr inbounds %"class.EA::StdC::CallbackManager", ptr %this1, i32 0, i32 15
  call void @_ZN2EA6Thread6ThreadD1Ev(ptr noundef nonnull align 8 dereferenceable(8) %mThread) #10
  %mMutex = getelementptr inbounds %"class.EA::StdC::CallbackManager", ptr %this1, i32 0, i32 14
  call void @_ZN2EA6Thread5MutexD1Ev(ptr noundef nonnull align 8 dereferenceable(48) %mMutex) #10
  %mStopwatch = getelementptr inbounds %"class.EA::StdC::CallbackManager", ptr %this1, i32 0, i32 2
  call void @_ZN2EA4StdC9StopwatchD2Ev(ptr noundef nonnull align 8 dereferenceable(24) %mStopwatch) #10
  %mCallbackArray = getelementptr inbounds %"class.EA::StdC::CallbackManager", ptr %this1, i32 0, i32 1
  call void @_ZN2EA4StdC15CallbackManager14CallbackVectorD1Ev(ptr noundef nonnull align 8 dereferenceable(88) %mCallbackArray) #10
  call void @_ZN2EA4StdC16ICallbackManagerD2Ev(ptr noundef nonnull align 8 dereferenceable(8) %this1) #10
  ret void

terminate.lpad:                                   ; preds = %entry
  %0 = landingpad { ptr, i32 }
          catch ptr null
  %1 = extractvalue { ptr, i32 } %0, 0
  call void @__clang_call_terminate(ptr %1) #11
  unreachable
}