; Function Attrs: mustprogress nounwind uwtable
define dso_local void @_ZN2EA4StdC15CallbackManagerD2Ev(ptr noundef nonnull align 8 dereferenceable(296) %this) unnamed_addr #2 align 2 personality ptr @__gxx_personality_v0 {
entry:
  store ptr getelementptr inbounds ({ [9 x ptr] }, ptr @_ZTVN2EA4StdC15CallbackManagerE, i64 0, i32 0, i64 2), ptr %this, align 8
  invoke void @_ZN2EA4StdC15CallbackManager8ShutdownEv(ptr noundef nonnull align 8 dereferenceable(296) %this)
          to label %invoke.cont unwind label %terminate.lpad

invoke.cont:                                      ; preds = %entry
  %mThread = getelementptr inbounds i8, ptr %this, i64 232
  tail call void @_ZN2EA6Thread6ThreadD1Ev(ptr noundef nonnull align 8 dereferenceable(8) %mThread) #14
  %mMutex = getelementptr inbounds i8, ptr %this, i64 184
  tail call void @_ZN2EA6Thread5MutexD1Ev(ptr noundef nonnull align 8 dereferenceable(48) %mMutex) #14
  %mCallbackArray = getelementptr inbounds i8, ptr %this, i64 8
  %0 = load ptr, ptr %mCallbackArray, align 8
  %mLocalBuffer.i = getelementptr inbounds i8, ptr %this, i64 32
  %cmp.not.i = icmp eq ptr %0, %mLocalBuffer.i
  %isnull.i = icmp eq ptr %0, null
  %or.cond.i = or i1 %cmp.not.i, %isnull.i
  br i1 %or.cond.i, label %_ZN2EA4StdC15CallbackManager14CallbackVectorD2Ev.exit, label %delete.notnull.i

delete.notnull.i:                                 ; preds = %invoke.cont
  tail call void @_ZdaPv(ptr noundef nonnull %0) #19
  br label %_ZN2EA4StdC15CallbackManager14CallbackVectorD2Ev.exit

_ZN2EA4StdC15CallbackManager14CallbackVectorD2Ev.exit: ; preds = %invoke.cont, %delete.notnull.i
  ret void

terminate.lpad:                                   ; preds = %entry
  %1 = landingpad { ptr, i32 }
          catch ptr null
  %2 = extractvalue { ptr, i32 } %1, 0
  tail call void @__clang_call_terminate(ptr %2) #18
  unreachable
}